(lp1
S'Name'
p2
aS'ID'
p3
a.I13
.(dp1
I11
(dp2
S'__id__'
p3
I11
sS'__version__'
p4
I2
sS'Name'
p5
S'fanyue'
p6
sS'ID'
p7
S'123456'
p8
ssI12
(dp9
S'__id__'
p10
I12
sS'__version__'
p11
I0
sS'Name'
p12
S'chenyan'
p13
sS'ID'
p14
S'654789'
p15
ss.(dp1
.