(lp1
S'title'
p2
aS'artist'
p3
a.I13
.(dp1
I11
(dp2
S'artist'
p3
S''
sS'__version__'
p4
I0
sS'__id__'
p5
I11
sS'title'
p6
S''
ssI5
(dp7
S'title'
p8
S'qweqwe'
p9
sS'__version__'
p10
I2
sS'__id__'
p11
I5
sS'artist'
p12
S'qwqwe'
p13
ss.(dp1
.