(lp1
S'Name'
p2
aS'ID'
p3
a.I14
.(dp1
I12
(dp2
S'ID'
p3
S'0001'
p4
sS'__version__'
p5
I0
sS'__id__'
p6
I12
sS'Name'
p7
S'boss'
p8
ssI13
(dp9
S'__id__'
p10
I13
sS'__version__'
p11
I0
sS'Name'
p12
S'boss2'
p13
sS'ID'
p14
S'456789'
p15
ss.(dp1
.